; Function Attrs: mustprogress uwtable
define noalias nonnull ptr @lean_float_frexp(double noundef %0) local_unnamed_addr #0 {
  %2 = alloca i32, align 4
  tail call void @lean_inc_heartbeat()
  %3 = tail call noalias ptr @mi_malloc_small(i64 noundef 24) #40
  %4 = icmp eq ptr %3, null
  br i1 %4, label %5, label %_ZL15lean_alloc_ctorjjj.exit

5:                                                ; preds = %1
  tail call void @lean_internal_panic_out_of_memory() #43
  unreachable

_ZL15lean_alloc_ctorjjj.exit:                     ; preds = %1
  %6 = getelementptr inbounds nuw i8, ptr %3, i64 4
  store i32 1, ptr %3, align 4, !tbaa !23
  store i32 131096, ptr %6, align 4
  call void @llvm.lifetime.start.p0(i64 4, ptr nonnull %2) #40
  %7 = call double @frexp(double noundef %0, ptr noundef nonnull %2) #40
  tail call void @lean_inc_heartbeat()
  %8 = tail call noalias ptr @mi_malloc_small(i64 noundef 16) #40
  %9 = icmp eq ptr %8, null
  br i1 %9, label %10, label %_ZL14lean_box_floatd.exit

10:                                               ; preds = %_ZL15lean_alloc_ctorjjj.exit
  tail call void @lean_internal_panic_out_of_memory() #43
  unreachable

_ZL14lean_box_floatd.exit:                        ; preds = %_ZL15lean_alloc_ctorjjj.exit
  %11 = getelementptr inbounds nuw i8, ptr %8, i64 4
  store i32 1, ptr %8, align 4, !tbaa !23
  store i32 16, ptr %11, align 4
  %12 = getelementptr inbounds nuw i8, ptr %8, i64 8
  store double %7, ptr %12, align 8, !tbaa !157
  %13 = getelementptr inbounds nuw i8, ptr %3, i64 8
  store ptr %8, ptr %13, align 8, !tbaa !31
  %14 = tail call double @llvm.fabs.f64(double %0)
  %15 = fcmp one double %14, 0x7FF0000000000000
  %16 = load i32, ptr %2, align 4
  %17 = zext i32 %16 to i64
  %18 = shl nuw nsw i64 %17, 1
  %19 = or disjoint i64 %18, 1
  %20 = inttoptr i64 %19 to ptr
  %21 = select i1 %15, ptr %20, ptr inttoptr (i64 1 to ptr)
  %22 = getelementptr inbounds nuw i8, ptr %3, i64 16
  store ptr %21, ptr %22, align 8, !tbaa !31
  call void @llvm.lifetime.end.p0(i64 4, ptr nonnull %2) #40
  ret ptr %3
}